(dp0
S'file_name'
p1
csip
_unpickle_type
p2
(S'PyQt4.QtCore'
p3
S'QString'
p4
(Vsynth.csv
p5
tp6
tp7
Rp8
sS'region_width'
p9
(lp10
(F90771.338112
F90773.661888
tp11
a(F90766.69056
F90778.30944
tp12
a(F90743.4528
F90801.5472
tp13
a(F89391.86023307426
F90341.23735114589
tp14
a(F87287.93991624877
F92183.53026282795
tp15
a(F82308.80486111112
F99110.12222222221
tp16
a(F72618.0
F108927.0
tp17
as.